target datalayout = "e-m:e-p270:32:32-p271:32:32-p272:64:64-i64:64-i128:128-f80:128-n8:16:32:64-S128"
target triple = "x86_64-pc-linux-gnu"

%struct.gmx_sel_mempool_t = type { i64, i64, ptr, ptr, i32, ptr, i32, i64 }
%struct.gmx_sel_mempool_block_t = type { ptr, i64 }
%class.anon = type { i8 }

@.str.1 = private unnamed_addr constant [127 x i8] c"generated/home/dtcxzyw/WorkSpace/Projects/compilers/llvm-opt-benchmark/bench/gromacs/gromacs/src/gromacs/selection/mempool.cpp\00", align 1
@.str.7 = private unnamed_addr constant [4 x i8] c"ptr\00", align 1
@.str.8 = private unnamed_addr constant [62 x i8] c"mp->nblocks > 0 && mp->blockstack[mp->nblocks - 1].ptr == ptr\00", align 1
@.str.9 = private unnamed_addr constant [40 x i8] c"Invalid order of memory pool free calls\00", align 1
@"__PRETTY_FUNCTION__._ZZ21_gmx_sel_mempool_freeP17gmx_sel_mempool_tPvENK3$_0clEv" = private unnamed_addr constant [95 x i8] c"auto _gmx_sel_mempool_free(gmx_sel_mempool_t *, void *)::(anonymous class)::operator()() const\00", align 1

; Function Attrs: mustprogress uwtable
define internal void @_ZL14gmx_sfree_implIvEvPKcS1_iPT_(ptr noundef %0, ptr noundef %1, i32 noundef %2, ptr noundef %3) #0 {
  %5 = alloca ptr, align 8
  %6 = alloca ptr, align 8
  %7 = alloca i32, align 4
  %8 = alloca ptr, align 8
  store ptr %0, ptr %5, align 8
  store ptr %1, ptr %6, align 8
  store i32 %2, ptr %7, align 4
  store ptr %3, ptr %8, align 8
  %9 = load ptr, ptr %5, align 8
  %10 = load ptr, ptr %6, align 8
  %11 = load i32, ptr %7, align 4
  %12 = load ptr, ptr %8, align 8
  call void @_Z9save_freePKcS0_iPv(ptr noundef %9, ptr noundef %10, i32 noundef %11, ptr noundef %12)
  ret void
}

; Function Attrs: mustprogress uwtable
define internal void @"_ZZ21_gmx_sel_mempool_freeP17gmx_sel_mempool_tPvENK3$_0clEv"(ptr noundef nonnull align 1 dereferenceable(1) %0) #0 align 2 {
  %2 = alloca ptr, align 8
  store ptr %0, ptr %2, align 8
  call void @_ZN3gmx8internal13assertHandlerEPKcS2_S2_S2_i(ptr noundef @.str.8, ptr noundef @.str.9, ptr noundef @"__PRETTY_FUNCTION__._ZZ21_gmx_sel_mempool_freeP17gmx_sel_mempool_tPvENK3$_0clEv", ptr noundef @.str.1, i32 noundef 178) #11
  unreachable
}

; Function Attrs: mustprogress uwtable
define void @_Z21_gmx_sel_mempool_freeP17gmx_sel_mempool_tPv(ptr noundef %0, ptr noundef %1) #0 {
  %3 = alloca ptr, align 8
  %4 = alloca ptr, align 8
  %5 = alloca i32, align 4
  %6 = alloca %class.anon, align 1
  store ptr %0, ptr %3, align 8
  store ptr %1, ptr %4, align 8
  %7 = load ptr, ptr %4, align 8
  %8 = icmp eq ptr %7, null
  br i1 %8, label %9, label %10

9:                                                ; preds = %2
  br label %69

10:                                               ; preds = %2
  %11 = load ptr, ptr %3, align 8
  %12 = getelementptr inbounds %struct.gmx_sel_mempool_t, ptr %11, i32 0, i32 4
  %13 = load i32, ptr %12, align 8
  %14 = icmp sgt i32 %13, 0
  br i1 %14, label %15, label %30

15:                                               ; preds = %10
  %16 = load ptr, ptr %3, align 8
  %17 = getelementptr inbounds %struct.gmx_sel_mempool_t, ptr %16, i32 0, i32 5
  %18 = load ptr, ptr %17, align 8
  %19 = load ptr, ptr %3, align 8
  %20 = getelementptr inbounds %struct.gmx_sel_mempool_t, ptr %19, i32 0, i32 4
  %21 = load i32, ptr %20, align 8
  %22 = sub nsw i32 %21, 1
  %23 = sext i32 %22 to i64
  %24 = getelementptr inbounds %struct.gmx_sel_mempool_block_t, ptr %18, i64 %23
  %25 = getelementptr inbounds %struct.gmx_sel_mempool_block_t, ptr %24, i32 0, i32 0
  %26 = load ptr, ptr %25, align 8
  %27 = load ptr, ptr %4, align 8
  %28 = icmp eq ptr %26, %27
  br i1 %28, label %29, label %30

29:                                               ; preds = %15
  br label %31

30:                                               ; preds = %15, %10
  call void @"_ZZ21_gmx_sel_mempool_freeP17gmx_sel_mempool_tPvENK3$_0clEv"(ptr noundef nonnull align 1 dereferenceable(1) %6)
  br label %31

31:                                               ; preds = %30, %29
  %32 = load ptr, ptr %3, align 8
  %33 = getelementptr inbounds %struct.gmx_sel_mempool_t, ptr %32, i32 0, i32 4
  %34 = load i32, ptr %33, align 8
  %35 = add nsw i32 %34, -1
  store i32 %35, ptr %33, align 8
  %36 = load ptr, ptr %3, align 8
  %37 = getelementptr inbounds %struct.gmx_sel_mempool_t, ptr %36, i32 0, i32 5
  %38 = load ptr, ptr %37, align 8
  %39 = load ptr, ptr %3, align 8
  %40 = getelementptr inbounds %struct.gmx_sel_mempool_t, ptr %39, i32 0, i32 4
  %41 = load i32, ptr %40, align 8
  %42 = sext i32 %41 to i64
  %43 = getelementptr inbounds %struct.gmx_sel_mempool_block_t, ptr %38, i64 %42
  %44 = getelementptr inbounds %struct.gmx_sel_mempool_block_t, ptr %43, i32 0, i32 1
  %45 = load i64, ptr %44, align 8
  %46 = trunc i64 %45 to i32
  store i32 %46, ptr %5, align 4
  %47 = load i32, ptr %5, align 4
  %48 = sext i32 %47 to i64
  %49 = load ptr, ptr %3, align 8
  %50 = getelementptr inbounds %struct.gmx_sel_mempool_t, ptr %49, i32 0, i32 0
  %51 = load i64, ptr %50, align 8
  %52 = sub i64 %51, %48
  store i64 %52, ptr %50, align 8
  %53 = load ptr, ptr %3, align 8
  %54 = getelementptr inbounds %struct.gmx_sel_mempool_t, ptr %53, i32 0, i32 2
  %55 = load ptr, ptr %54, align 8
  %56 = icmp ne ptr %55, null
  br i1 %56, label %57, label %67

57:                                               ; preds = %31
  %58 = load ptr, ptr %4, align 8
  %59 = load ptr, ptr %3, align 8
  %60 = getelementptr inbounds %struct.gmx_sel_mempool_t, ptr %59, i32 0, i32 3
  store ptr %58, ptr %60, align 8
  %61 = load i32, ptr %5, align 4
  %62 = sext i32 %61 to i64
  %63 = load ptr, ptr %3, align 8
  %64 = getelementptr inbounds %struct.gmx_sel_mempool_t, ptr %63, i32 0, i32 1
  %65 = load i64, ptr %64, align 8
  %66 = add i64 %65, %62
  store i64 %66, ptr %64, align 8
  br label %69

67:                                               ; preds = %31
  %68 = load ptr, ptr %4, align 8
  call void @_ZL14gmx_sfree_implIvEvPKcS1_iPT_(ptr noundef @.str.7, ptr noundef @.str.1, i32 noundef 189, ptr noundef %68)
  br label %69

69:                                               ; preds = %67, %57, %9
  ret void
}