; Function Attrs: mustprogress uwtable
define void @_Z21_gmx_sel_mempool_freeP17gmx_sel_mempool_tPv(ptr nocapture noundef %0, ptr noundef %1) local_unnamed_addr #0 {
  %3 = icmp eq ptr %1, null
  br i1 %3, label %33, label %4

4:                                                ; preds = %2
  %5 = getelementptr inbounds i8, ptr %0, i64 32
  %6 = load i32, ptr %5, align 8
  %7 = icmp sgt i32 %6, 0
  br i1 %7, label %8, label %16

8:                                                ; preds = %4
  %9 = getelementptr inbounds i8, ptr %0, i64 40
  %10 = load ptr, ptr %9, align 8
  %11 = zext nneg i32 %6 to i64
  %12 = getelementptr %struct.gmx_sel_mempool_block_t, ptr %10, i64 %11
  %13 = getelementptr i8, ptr %12, i64 -16
  %14 = load ptr, ptr %13, align 8
  %15 = icmp eq ptr %14, %1
  br i1 %15, label %17, label %16

16:                                               ; preds = %8, %4
  tail call void @_ZN3gmx8internal13assertHandlerEPKcS2_S2_S2_i(ptr noundef nonnull @.str.8, ptr noundef nonnull @.str.9, ptr noundef nonnull @"__PRETTY_FUNCTION__._ZZ21_gmx_sel_mempool_freeP17gmx_sel_mempool_tPvENK3$_0clEv", ptr noundef nonnull @.str.1, i32 noundef 178) #14
  unreachable

17:                                               ; preds = %8
  %18 = add nsw i32 %6, -1
  store i32 %18, ptr %5, align 8
  %19 = zext nneg i32 %18 to i64
  %20 = getelementptr inbounds %struct.gmx_sel_mempool_block_t, ptr %10, i64 %19, i32 1
  %21 = load i64, ptr %20, align 8
  %sext = shl i64 %21, 32
  %22 = ashr exact i64 %sext, 32
  %23 = load i64, ptr %0, align 8
  %24 = sub i64 %23, %22
  store i64 %24, ptr %0, align 8
  %25 = getelementptr inbounds i8, ptr %0, i64 16
  %26 = load ptr, ptr %25, align 8
  %.not = icmp eq ptr %26, null
  br i1 %.not, label %32, label %27

27:                                               ; preds = %17
  %28 = getelementptr inbounds i8, ptr %0, i64 24
  store ptr %1, ptr %28, align 8
  %29 = getelementptr inbounds i8, ptr %0, i64 8
  %30 = load i64, ptr %29, align 8
  %31 = add i64 %30, %22
  store i64 %31, ptr %29, align 8
  br label %33

32:                                               ; preds = %17
  tail call void @_Z9save_freePKcS0_iPv(ptr noundef nonnull @.str.7, ptr noundef nonnull @.str.1, i32 noundef 189, ptr noundef nonnull %1)
  br label %33

33:                                               ; preds = %2, %32, %27
  ret void
}